target datalayout = "e-m:e-p270:32:32-p271:32:32-p272:64:64-i64:64-i128:128-f80:128-n8:16:32:64-S128"
target triple = "x86_64-pc-linux-gnu"

%struct.Vec_Int_t_ = type { i32, i32, ptr }
%struct.Gia_Man_t_ = type { ptr, ptr, i32, i32, i32, i32, ptr, ptr, i32, i32, i32, ptr, ptr, %struct.Vec_Int_t_, %struct.Vec_Int_t_, i32, i32, i32, %struct.Vec_Int_t_, ptr, ptr, ptr, i32, i32, i32, i32, ptr, ptr, ptr, ptr, ptr, i32, i32, ptr, i32, ptr, ptr, ptr, ptr, ptr, ptr, ptr, ptr, ptr, ptr, ptr, ptr, ptr, ptr, ptr, ptr, ptr, ptr, %struct.Vec_Int_t_, %struct.Vec_Int_t_, ptr, ptr, ptr, ptr, ptr, ptr, ptr, ptr, ptr, ptr, ptr, ptr, ptr, ptr, ptr, ptr, ptr, ptr, ptr, ptr, ptr, i32, float, float, ptr, ptr, i32, ptr, ptr, ptr, ptr, ptr, ptr, ptr, ptr, ptr, ptr, ptr, ptr, ptr, ptr, ptr, i64, i64, ptr, ptr, i32, i32, i32, i32, i32, i32, i32, i32, i32, i32, i32, i32, ptr, ptr, ptr, ptr, ptr, ptr, ptr, ptr, i32, i32, i32, ptr, i32, i32, ptr, ptr, ptr, ptr, ptr, ptr, i32, i32, ptr, %struct.Vec_Int_t_, %struct.Vec_Int_t_, %struct.Vec_Int_t_, ptr, ptr, ptr, i32, i32, i32, i32, ptr, ptr, ptr, ptr, ptr }
%struct.Abc_Ntk_t_ = type { i32, i32, ptr, ptr, ptr, ptr, ptr, ptr, ptr, ptr, ptr, ptr, ptr, [11 x i32], i32, i32, i32, i32, ptr, i32, ptr, ptr, i32, i32, i32, double, i32, %struct.Vec_Int_t_, ptr, ptr, ptr, ptr, ptr, float, i32, ptr, ptr, ptr, ptr, ptr, ptr, ptr, ptr, ptr, ptr, ptr, ptr, ptr, ptr, ptr, ptr, ptr, ptr, ptr, ptr, ptr, ptr }

; Function Attrs: nounwind uwtable
define ptr @Gia_ManDoTest2(ptr noundef %0, i32 noundef %1, i32 noundef %2) #0 {
  %4 = alloca ptr, align 8
  %5 = alloca i32, align 4
  %6 = alloca i32, align 4
  %7 = alloca ptr, align 8
  %8 = alloca ptr, align 8
  %9 = alloca ptr, align 8
  store ptr %0, ptr %4, align 8, !tbaa !34
  store i32 %1, ptr %5, align 4, !tbaa !14
  store i32 %2, ptr %6, align 4, !tbaa !14
  call void @llvm.lifetime.start.p0(i64 8, ptr %7) #13
  call void @llvm.lifetime.start.p0(i64 8, ptr %8) #13
  call void @llvm.lifetime.start.p0(i64 8, ptr %9) #13
  %10 = load i32, ptr %6, align 4, !tbaa !14
  %11 = icmp ne i32 %10, 0
  br i1 %11, label %12, label %15

12:                                               ; preds = %3
  %13 = load ptr, ptr %4, align 8, !tbaa !34
  %14 = call ptr @Gia_ManDup(ptr noundef %13)
  br label %19

15:                                               ; preds = %3
  %16 = load ptr, ptr %4, align 8, !tbaa !34
  %17 = load i32, ptr %5, align 4, !tbaa !14
  %18 = call ptr @Gia_ManDoMuxTransform(ptr noundef %16, i32 noundef %17)
  br label %19

19:                                               ; preds = %15, %12
  %20 = phi ptr [ %14, %12 ], [ %18, %15 ]
  store ptr %20, ptr %9, align 8, !tbaa !34
  %21 = load ptr, ptr %9, align 8, !tbaa !34
  store ptr %21, ptr %8, align 8, !tbaa !34
  %22 = call ptr @Gia_ManDoMuxMapping(ptr noundef %21)
  store ptr %22, ptr %9, align 8, !tbaa !34
  %23 = load ptr, ptr %8, align 8, !tbaa !34
  call void @Gia_ManStop(ptr noundef %23)
  %24 = load ptr, ptr %9, align 8, !tbaa !34
  %25 = call ptr @Abc_NtkFromMappedGia(ptr noundef %24, i32 noundef 0, i32 noundef 0)
  store ptr %25, ptr %7, align 8, !tbaa !151
  %26 = load ptr, ptr %4, align 8, !tbaa !34
  %27 = getelementptr inbounds nuw %struct.Gia_Man_t_, ptr %26, i32 0, i32 0
  %28 = load ptr, ptr %27, align 8, !tbaa !36
  %29 = call ptr @Extra_UtilStrsav(ptr noundef %28)
  %30 = load ptr, ptr %7, align 8, !tbaa !151
  %31 = getelementptr inbounds nuw %struct.Abc_Ntk_t_, ptr %30, i32 0, i32 2
  store ptr %29, ptr %31, align 8, !tbaa !159
  %32 = load ptr, ptr %9, align 8, !tbaa !34
  call void @Gia_ManStop(ptr noundef %32)
  %33 = load ptr, ptr %7, align 8, !tbaa !151
  %34 = call i32 @Abc_NtkToSop(ptr noundef %33, i32 noundef 1, i32 noundef 1000000000)
  %35 = load ptr, ptr %7, align 8, !tbaa !151
  call void @llvm.lifetime.end.p0(i64 8, ptr %9) #13
  call void @llvm.lifetime.end.p0(i64 8, ptr %8) #13
  call void @llvm.lifetime.end.p0(i64 8, ptr %7) #13
  ret ptr %35
}