; Function Attrs: nounwind uwtable
define ptr @Gia_ManDoTest2(ptr noundef %0, i32 noundef %1, i32 noundef %2) local_unnamed_addr #0 {
  %.not = icmp eq i32 %2, 0
  br i1 %.not, label %6, label %4

4:                                                ; preds = %3
  %5 = tail call ptr @Gia_ManDup(ptr noundef %0) #24
  br label %8

6:                                                ; preds = %3
  %7 = tail call ptr @Gia_ManDoMuxTransform(ptr noundef %0, i32 noundef %1)
  br label %8

8:                                                ; preds = %6, %4
  %9 = phi ptr [ %5, %4 ], [ %7, %6 ]
  %10 = tail call ptr @Gia_ManDoMuxMapping(ptr noundef %9)
  tail call void @Gia_ManStop(ptr noundef %9) #24
  %11 = tail call ptr @Abc_NtkFromMappedGia(ptr noundef %10, i32 noundef 0, i32 noundef 0) #24
  %12 = load ptr, ptr %0, align 8, !tbaa !26
  %13 = tail call ptr @Extra_UtilStrsav(ptr noundef %12) #24
  %14 = getelementptr inbounds nuw i8, ptr %11, i64 8
  store ptr %13, ptr %14, align 8, !tbaa !138
  tail call void @Gia_ManStop(ptr noundef %10) #24
  %15 = tail call i32 @Abc_NtkToSop(ptr noundef %11, i32 noundef 1, i32 noundef 1000000000) #24
  ret ptr %11
}